target datalayout = "e-m:e-p270:32:32-p271:32:32-p272:64:64-i64:64-i128:128-f80:128-n8:16:32:64-S128"
target triple = "x86_64-pc-linux-gnu"

%class.ciMethodData = type { %class.ciMetadata, i32, i32, ptr, i32, i32, i32, i8, i8, i64, i64, i64, i64, i32, %"class.MethodData::CompilerCounters" }
%class.ciMetadata = type { %class.ciBaseObject.base, ptr }
%class.ciBaseObject.base = type <{ ptr, i32 }>
%"class.MethodData::CompilerCounters" = type { i32, i32, i32, %union.anon }
%union.anon = type { i64, [56 x i8] }
%class.ciBaseObject = type <{ ptr, i32, [4 x i8] }>

@_ZTV10ciMetadata = external unnamed_addr constant { [18 x ptr] }, align 8
@_ZTV12ciBaseObject = linkonce_odr hidden unnamed_addr constant { [6 x ptr] } { [6 x ptr] [ptr null, ptr null, ptr @_ZN12ciBaseObject11type_stringEv, ptr @_ZNK12ciBaseObject9is_symbolEv, ptr @_ZNK12ciBaseObject9is_objectEv, ptr @_ZNK12ciBaseObject11is_metadataEv] }, comdat, align 8

; Function Attrs: mustprogress nounwind uwtable
define linkonce_odr hidden void @_ZN4Copy16pd_fill_to_wordsEPP12HeapWordImplmj(ptr noundef %0, i64 noundef %1, i32 noundef %2) #1 comdat align 2 {
  %4 = alloca ptr, align 8
  %5 = alloca i64, align 8
  %6 = alloca i32, align 4
  %7 = alloca ptr, align 8
  %8 = alloca i64, align 8
  store ptr %0, ptr %4, align 8
  store i64 %1, ptr %5, align 8
  store i32 %2, ptr %6, align 4
  %9 = load ptr, ptr %4, align 8
  store ptr %9, ptr %7, align 8
  %10 = load i32, ptr %6, align 4
  %11 = zext i32 %10 to i64
  %12 = shl i64 %11, 32
  %13 = load i32, ptr %6, align 4
  %14 = zext i32 %13 to i64
  %15 = or i64 %12, %14
  store i64 %15, ptr %8, align 8
  br label %16

16:                                               ; preds = %20, %3
  %17 = load i64, ptr %5, align 8
  %18 = add i64 %17, -1
  store i64 %18, ptr %5, align 8
  %19 = icmp ugt i64 %17, 0
  br i1 %19, label %20, label %24

20:                                               ; preds = %16
  %21 = load i64, ptr %8, align 8
  %22 = load ptr, ptr %7, align 8
  %23 = getelementptr inbounds i64, ptr %22, i32 1
  store ptr %23, ptr %7, align 8
  store i64 %21, ptr %22, align 8
  br label %16, !llvm.loop !30

24:                                               ; preds = %16
  ret void
}

; Function Attrs: mustprogress nounwind uwtable
define linkonce_odr hidden void @_ZN4Copy16pd_zero_to_wordsEPP12HeapWordImplm(ptr noundef %0, i64 noundef %1) #1 comdat align 2 {
  %3 = alloca ptr, align 8
  %4 = alloca i64, align 8
  store ptr %0, ptr %3, align 8
  store i64 %1, ptr %4, align 8
  %5 = load ptr, ptr %3, align 8
  %6 = load i64, ptr %4, align 8
  call void @_ZN4Copy16pd_fill_to_wordsEPP12HeapWordImplmj(ptr noundef %5, i64 noundef %6, i32 noundef 0)
  ret void
}

; Function Attrs: mustprogress nounwind uwtable
define linkonce_odr hidden void @_ZN4Copy16assert_params_okEPP12HeapWordImpll(ptr noundef %0, i64 noundef %1) #1 comdat align 2 {
  %3 = alloca ptr, align 8
  %4 = alloca i64, align 8
  store ptr %0, ptr %3, align 8
  store i64 %1, ptr %4, align 8
  ret void
}

; Function Attrs: mustprogress nounwind uwtable
define linkonce_odr hidden void @_ZN4Copy13zero_to_wordsEPP12HeapWordImplm(ptr noundef %0, i64 noundef %1) #1 comdat align 2 {
  %3 = alloca ptr, align 8
  %4 = alloca i64, align 8
  store ptr %0, ptr %3, align 8
  store i64 %1, ptr %4, align 8
  %5 = load ptr, ptr %3, align 8
  call void @_ZN4Copy16assert_params_okEPP12HeapWordImpll(ptr noundef %5, i64 noundef 8)
  %6 = load ptr, ptr %3, align 8
  %7 = load i64, ptr %4, align 8
  call void @_ZN4Copy16pd_zero_to_wordsEPP12HeapWordImplm(ptr noundef %6, i64 noundef %7)
  ret void
}

; Function Attrs: mustprogress nounwind uwtable
define linkonce_odr hidden void @_ZN12ciBaseObjectC2Ev(ptr noundef nonnull align 8 dereferenceable(12) %0) unnamed_addr #1 comdat align 2 {
  %2 = alloca ptr, align 8
  store ptr %0, ptr %2, align 8
  %3 = load ptr, ptr %2, align 8
  store ptr getelementptr inbounds inrange(-16, 32) ({ [6 x ptr] }, ptr @_ZTV12ciBaseObject, i32 0, i32 0, i32 2), ptr %3, align 8
  %4 = getelementptr inbounds %class.ciBaseObject, ptr %3, i32 0, i32 1
  store i32 0, ptr %4, align 8
  ret void
}

; Function Attrs: mustprogress nounwind uwtable
define linkonce_odr hidden void @_ZN10MethodData16CompilerCountersC2Ev(ptr noundef nonnull align 8 dereferenceable(80) %0) unnamed_addr #1 comdat align 2 {
  %2 = alloca ptr, align 8
  %3 = alloca i32, align 4
  store ptr %0, ptr %2, align 8
  %4 = load ptr, ptr %2, align 8
  %5 = getelementptr inbounds %"class.MethodData::CompilerCounters", ptr %4, i32 0, i32 0
  store i32 0, ptr %5, align 8
  %6 = getelementptr inbounds %"class.MethodData::CompilerCounters", ptr %4, i32 0, i32 1
  store i32 0, ptr %6, align 4
  %7 = getelementptr inbounds %"class.MethodData::CompilerCounters", ptr %4, i32 0, i32 2
  store i32 0, ptr %7, align 8
  store i32 8, ptr %3, align 4
  %8 = getelementptr inbounds %"class.MethodData::CompilerCounters", ptr %4, i32 0, i32 3
  %9 = load i32, ptr %3, align 4
  %10 = zext i32 %9 to i64
  call void @_ZN4Copy13zero_to_wordsEPP12HeapWordImplm(ptr noundef %8, i64 noundef %10)
  ret void
}

; Function Attrs: mustprogress nounwind uwtable
define linkonce_odr hidden noundef i32 @_ZN12ciMethodData8first_diEv(ptr noundef nonnull align 8 dereferenceable(176) %0) #1 comdat align 2 {
  %2 = alloca ptr, align 8
  store ptr %0, ptr %2, align 8
  ret i32 0
}

; Function Attrs: mustprogress nounwind uwtable
define linkonce_odr hidden void @_ZN10ciMetadataC2EP8Metadata(ptr noundef nonnull align 8 dereferenceable(24) %0, ptr noundef %1) unnamed_addr #1 comdat align 2 {
  %3 = alloca ptr, align 8
  %4 = alloca ptr, align 8
  store ptr %0, ptr %3, align 8
  store ptr %1, ptr %4, align 8
  %5 = load ptr, ptr %3, align 8
  call void @_ZN12ciBaseObjectC2Ev(ptr noundef nonnull align 8 dereferenceable(12) %5)
  store ptr getelementptr inbounds inrange(-16, 128) ({ [18 x ptr] }, ptr @_ZTV10ciMetadata, i32 0, i32 0, i32 2), ptr %5, align 8
  %6 = getelementptr inbounds %class.ciMetadata, ptr %5, i32 0, i32 1
  %7 = load ptr, ptr %4, align 8
  store ptr %7, ptr %6, align 8
  ret void
}

; Function Attrs: mustprogress nounwind uwtable
define hidden void @_ZN12ciMethodDataC2EP10MethodData(ptr noundef nonnull align 8 dereferenceable(176) %0, ptr noundef %1) unnamed_addr #1 align 2 {
  %3 = alloca ptr, align 8
  %4 = alloca ptr, align 8
  store ptr %0, ptr %3, align 8
  store ptr %1, ptr %4, align 8
  %5 = load ptr, ptr %3, align 8
  %6 = load ptr, ptr %4, align 8
  call void @_ZN10ciMetadataC2EP8Metadata(ptr noundef nonnull align 8 dereferenceable(24) %5, ptr noundef %6)
  store ptr getelementptr inbounds inrange(-16, 128) ({ [18 x ptr] }, ptr @_ZTV12ciMethodData, i32 0, i32 0, i32 2), ptr %5, align 8
  %7 = getelementptr inbounds %class.ciMethodData, ptr %5, i32 0, i32 1
  store i32 0, ptr %7, align 8
  %8 = getelementptr inbounds %class.ciMethodData, ptr %5, i32 0, i32 2
  store i32 0, ptr %8, align 4
  %9 = getelementptr inbounds %class.ciMethodData, ptr %5, i32 0, i32 3
  store ptr null, ptr %9, align 8
  %10 = getelementptr inbounds %class.ciMethodData, ptr %5, i32 0, i32 4
  store i32 0, ptr %10, align 8
  %11 = getelementptr inbounds %class.ciMethodData, ptr %5, i32 0, i32 5
  store i32 0, ptr %11, align 4
  %12 = getelementptr inbounds %class.ciMethodData, ptr %5, i32 0, i32 6
  %13 = call noundef i32 @_ZN12ciMethodData8first_diEv(ptr noundef nonnull align 8 dereferenceable(176) %5)
  store i32 %13, ptr %12, align 8
  %14 = getelementptr inbounds %class.ciMethodData, ptr %5, i32 0, i32 7
  store i8 0, ptr %14, align 4
  %15 = getelementptr inbounds %class.ciMethodData, ptr %5, i32 0, i32 8
  store i8 0, ptr %15, align 1
  %16 = getelementptr inbounds %class.ciMethodData, ptr %5, i32 0, i32 9
  store i64 0, ptr %16, align 8
  %17 = getelementptr inbounds %class.ciMethodData, ptr %5, i32 0, i32 10
  store i64 0, ptr %17, align 8
  %18 = getelementptr inbounds %class.ciMethodData, ptr %5, i32 0, i32 11
  store i64 0, ptr %18, align 8
  %19 = getelementptr inbounds %class.ciMethodData, ptr %5, i32 0, i32 12
  store i64 0, ptr %19, align 8
  %20 = getelementptr inbounds %class.ciMethodData, ptr %5, i32 0, i32 13
  store i32 0, ptr %20, align 8
  %21 = getelementptr inbounds %class.ciMethodData, ptr %5, i32 0, i32 14
  call void @_ZN10MethodData16CompilerCountersC2Ev(ptr noundef nonnull align 8 dereferenceable(80) %21)
  ret void
}