; Function Attrs: mustprogress nofree norecurse nosync nounwind willreturn memory(argmem: write) uwtable
define hidden void @_ZN12ciMethodDataC2EP10MethodData(ptr nocapture noundef nonnull writeonly align 8 dereferenceable(176) %0, ptr noundef %1) unnamed_addr #0 align 2 {
  %3 = getelementptr inbounds i8, ptr %0, i64 8
  store i32 0, ptr %3, align 8
  %4 = getelementptr inbounds i8, ptr %0, i64 16
  store ptr %1, ptr %4, align 8
  store ptr getelementptr inbounds inrange(-16, 128) (i8, ptr @_ZTV12ciMethodData, i64 16), ptr %0, align 8
  %5 = getelementptr inbounds i8, ptr %0, i64 24
  %6 = getelementptr inbounds i8, ptr %0, i64 56
  %7 = getelementptr inbounds i8, ptr %0, i64 96
  store i32 0, ptr %7, align 8
  %8 = getelementptr inbounds i8, ptr %0, i64 100
  store i32 0, ptr %8, align 4
  %9 = getelementptr inbounds i8, ptr %0, i64 104
  store i32 0, ptr %9, align 8
  %10 = getelementptr inbounds i8, ptr %0, i64 112
  tail call void @llvm.memset.p0.i64(ptr noundef nonnull align 8 dereferenceable(64) %10, i8 0, i64 64, i1 false)
  tail call void @llvm.memset.p0.i64(ptr noundef nonnull align 8 dereferenceable(30) %5, i8 0, i64 30, i1 false)
  tail call void @llvm.memset.p0.i64(ptr noundef nonnull align 8 dereferenceable(36) %6, i8 0, i64 36, i1 false)
  ret void
}